target datalayout = "e-m:e-p270:32:32-p271:32:32-p272:64:64-i64:64-i128:128-f80:128-n8:16:32:64-S128"
target triple = "x86_64-pc-linux-gnu"

%struct.enc_struct = type { i32, i32, i32, i32, i32, ptr, ptr, ptr, [4384 x i8] }

@.str.2 = private unnamed_addr constant [32 x i8] c"../openssl/crypto/evp/bio_enc.c\00", align 1

; Function Attrs: nounwind uwtable
define internal i32 @enc_new(ptr noundef %0) #0 {
  %2 = alloca i32, align 4
  %3 = alloca ptr, align 8
  %4 = alloca ptr, align 8
  %5 = alloca i32, align 4
  store ptr %0, ptr %3, align 8, !tbaa !3
  call void @llvm.lifetime.start.p0(i64 8, ptr %4) #4
  %6 = call noalias ptr @CRYPTO_zalloc(i64 noundef 4432, ptr noundef @.str.2, i32 noundef 68)
  store ptr %6, ptr %4, align 8, !tbaa !15
  %7 = icmp eq ptr %6, null
  br i1 %7, label %8, label %9

8:                                                ; preds = %1
  store i32 0, ptr %2, align 4
  store i32 1, ptr %5, align 4
  br label %34

9:                                                ; preds = %1
  %10 = call ptr @EVP_CIPHER_CTX_new()
  %11 = load ptr, ptr %4, align 8, !tbaa !15
  %12 = getelementptr inbounds nuw %struct.enc_struct, ptr %11, i32 0, i32 5
  store ptr %10, ptr %12, align 8, !tbaa !17
  %13 = load ptr, ptr %4, align 8, !tbaa !15
  %14 = getelementptr inbounds nuw %struct.enc_struct, ptr %13, i32 0, i32 5
  %15 = load ptr, ptr %14, align 8, !tbaa !17
  %16 = icmp eq ptr %15, null
  br i1 %16, label %17, label %19

17:                                               ; preds = %9
  %18 = load ptr, ptr %4, align 8, !tbaa !15
  call void @CRYPTO_free(ptr noundef %18, ptr noundef @.str.2, i32 noundef 73)
  store i32 0, ptr %2, align 4
  store i32 1, ptr %5, align 4
  br label %34

19:                                               ; preds = %9
  %20 = load ptr, ptr %4, align 8, !tbaa !15
  %21 = getelementptr inbounds nuw %struct.enc_struct, ptr %20, i32 0, i32 2
  store i32 1, ptr %21, align 8, !tbaa !27
  %22 = load ptr, ptr %4, align 8, !tbaa !15
  %23 = getelementptr inbounds nuw %struct.enc_struct, ptr %22, i32 0, i32 4
  store i32 1, ptr %23, align 8, !tbaa !24
  %24 = load ptr, ptr %4, align 8, !tbaa !15
  %25 = getelementptr inbounds nuw %struct.enc_struct, ptr %24, i32 0, i32 8
  %26 = getelementptr inbounds [4384 x i8], ptr %25, i64 0, i64 288
  %27 = load ptr, ptr %4, align 8, !tbaa !15
  %28 = getelementptr inbounds nuw %struct.enc_struct, ptr %27, i32 0, i32 6
  store ptr %26, ptr %28, align 8, !tbaa !28
  %29 = load ptr, ptr %4, align 8, !tbaa !15
  %30 = getelementptr inbounds nuw %struct.enc_struct, ptr %29, i32 0, i32 7
  store ptr %26, ptr %30, align 8, !tbaa !29
  %31 = load ptr, ptr %3, align 8, !tbaa !3
  %32 = load ptr, ptr %4, align 8, !tbaa !15
  call void @BIO_set_data(ptr noundef %31, ptr noundef %32)
  %33 = load ptr, ptr %3, align 8, !tbaa !3
  call void @BIO_set_init(ptr noundef %33, i32 noundef 1)
  store i32 1, ptr %2, align 4
  store i32 1, ptr %5, align 4
  br label %34

34:                                               ; preds = %19, %17, %8
  call void @llvm.lifetime.end.p0(i64 8, ptr %4) #4
  %35 = load i32, ptr %2, align 4
  ret i32 %35
}