; Function Attrs: nounwind uwtable
define internal range(i32 0, 2) i32 @enc_new(ptr noundef %0) #1 {
  %2 = tail call noalias ptr @CRYPTO_zalloc(i64 noundef 4432, ptr noundef nonnull @.str.2, i32 noundef 68) #6
  %3 = icmp eq ptr %2, null
  br i1 %3, label %15, label %4

4:                                                ; preds = %1
  %5 = tail call ptr @EVP_CIPHER_CTX_new() #6
  %6 = getelementptr inbounds nuw i8, ptr %2, i64 24
  store ptr %5, ptr %6, align 8, !tbaa !3
  %7 = icmp eq ptr %5, null
  br i1 %7, label %8, label %9

8:                                                ; preds = %4
  tail call void @CRYPTO_free(ptr noundef nonnull %2, ptr noundef nonnull @.str.2, i32 noundef 73) #6
  br label %15

9:                                                ; preds = %4
  %10 = getelementptr inbounds nuw i8, ptr %2, i64 8
  store i32 1, ptr %10, align 8, !tbaa !18
  %11 = getelementptr inbounds nuw i8, ptr %2, i64 16
  store i32 1, ptr %11, align 8, !tbaa !15
  %12 = getelementptr inbounds nuw i8, ptr %2, i64 336
  %13 = getelementptr inbounds nuw i8, ptr %2, i64 32
  store ptr %12, ptr %13, align 8, !tbaa !19
  %14 = getelementptr inbounds nuw i8, ptr %2, i64 40
  store ptr %12, ptr %14, align 8, !tbaa !20
  tail call void @BIO_set_data(ptr noundef %0, ptr noundef nonnull %2) #6
  tail call void @BIO_set_init(ptr noundef %0, i32 noundef 1) #6
  br label %15

15:                                               ; preds = %1, %9, %8
  %.0 = phi i32 [ 0, %8 ], [ 1, %9 ], [ 0, %1 ]
  ret i32 %.0
}